target datalayout = "e-m:e-p270:32:32-p271:32:32-p272:64:64-i64:64-i128:128-f80:128-n8:16:32:64-S128"
target triple = "x86_64-pc-linux-gnu"

; Function Attrs: nounwind uwtable
define void @denseGETRS(ptr noundef %0, i64 noundef %1, ptr noundef %2, ptr noundef %3) #0 {
  %5 = alloca ptr, align 8
  %6 = alloca i64, align 8
  %7 = alloca ptr, align 8
  %8 = alloca ptr, align 8
  %9 = alloca i64, align 8
  %10 = alloca i64, align 8
  %11 = alloca i64, align 8
  %12 = alloca ptr, align 8
  %13 = alloca double, align 8
  store ptr %0, ptr %5, align 8, !tbaa !18
  store i64 %1, ptr %6, align 8, !tbaa !19
  store ptr %2, ptr %7, align 8, !tbaa !8
  store ptr %3, ptr %8, align 8, !tbaa !20
  call void @llvm.lifetime.start.p0(i64 8, ptr %9) #4
  call void @llvm.lifetime.start.p0(i64 8, ptr %10) #4
  call void @llvm.lifetime.start.p0(i64 8, ptr %11) #4
  call void @llvm.lifetime.start.p0(i64 8, ptr %12) #4
  call void @llvm.lifetime.start.p0(i64 8, ptr %13) #4
  store i64 0, ptr %10, align 8, !tbaa !19
  br label %14

14:                                               ; preds = %43, %4
  %15 = load i64, ptr %10, align 8, !tbaa !19
  %16 = load i64, ptr %6, align 8, !tbaa !19
  %17 = icmp slt i64 %15, %16
  br i1 %17, label %18, label %46

18:                                               ; preds = %14
  %19 = load ptr, ptr %7, align 8, !tbaa !8
  %20 = load i64, ptr %10, align 8, !tbaa !19
  %21 = getelementptr inbounds i64, ptr %19, i64 %20
  %22 = load i64, ptr %21, align 8, !tbaa !19
  store i64 %22, ptr %11, align 8, !tbaa !19
  %23 = load i64, ptr %11, align 8, !tbaa !19
  %24 = load i64, ptr %10, align 8, !tbaa !19
  %25 = icmp ne i64 %23, %24
  br i1 %25, label %26, label %42

26:                                               ; preds = %18
  %27 = load ptr, ptr %8, align 8, !tbaa !20
  %28 = load i64, ptr %10, align 8, !tbaa !19
  %29 = getelementptr inbounds double, ptr %27, i64 %28
  %30 = load double, ptr %29, align 8, !tbaa !21
  store double %30, ptr %13, align 8, !tbaa !21
  %31 = load ptr, ptr %8, align 8, !tbaa !20
  %32 = load i64, ptr %11, align 8, !tbaa !19
  %33 = getelementptr inbounds double, ptr %31, i64 %32
  %34 = load double, ptr %33, align 8, !tbaa !21
  %35 = load ptr, ptr %8, align 8, !tbaa !20
  %36 = load i64, ptr %10, align 8, !tbaa !19
  %37 = getelementptr inbounds double, ptr %35, i64 %36
  store double %34, ptr %37, align 8, !tbaa !21
  %38 = load double, ptr %13, align 8, !tbaa !21
  %39 = load ptr, ptr %8, align 8, !tbaa !20
  %40 = load i64, ptr %11, align 8, !tbaa !19
  %41 = getelementptr inbounds double, ptr %39, i64 %40
  store double %38, ptr %41, align 8, !tbaa !21
  br label %42

42:                                               ; preds = %26, %18
  br label %43

43:                                               ; preds = %42
  %44 = load i64, ptr %10, align 8, !tbaa !19
  %45 = add nsw i64 %44, 1
  store i64 %45, ptr %10, align 8, !tbaa !19
  br label %14, !llvm.loop !30

46:                                               ; preds = %14
  store i64 0, ptr %10, align 8, !tbaa !19
  br label %47

47:                                               ; preds = %82, %46
  %48 = load i64, ptr %10, align 8, !tbaa !19
  %49 = load i64, ptr %6, align 8, !tbaa !19
  %50 = sub nsw i64 %49, 1
  %51 = icmp slt i64 %48, %50
  br i1 %51, label %52, label %85

52:                                               ; preds = %47
  %53 = load ptr, ptr %5, align 8, !tbaa !18
  %54 = load i64, ptr %10, align 8, !tbaa !19
  %55 = getelementptr inbounds ptr, ptr %53, i64 %54
  %56 = load ptr, ptr %55, align 8, !tbaa !20
  store ptr %56, ptr %12, align 8, !tbaa !20
  %57 = load i64, ptr %10, align 8, !tbaa !19
  %58 = add nsw i64 %57, 1
  store i64 %58, ptr %9, align 8, !tbaa !19
  br label %59

59:                                               ; preds = %78, %52
  %60 = load i64, ptr %9, align 8, !tbaa !19
  %61 = load i64, ptr %6, align 8, !tbaa !19
  %62 = icmp slt i64 %60, %61
  br i1 %62, label %63, label %81

63:                                               ; preds = %59
  %64 = load ptr, ptr %12, align 8, !tbaa !20
  %65 = load i64, ptr %9, align 8, !tbaa !19
  %66 = getelementptr inbounds double, ptr %64, i64 %65
  %67 = load double, ptr %66, align 8, !tbaa !21
  %68 = load ptr, ptr %8, align 8, !tbaa !20
  %69 = load i64, ptr %10, align 8, !tbaa !19
  %70 = getelementptr inbounds double, ptr %68, i64 %69
  %71 = load double, ptr %70, align 8, !tbaa !21
  %72 = load ptr, ptr %8, align 8, !tbaa !20
  %73 = load i64, ptr %9, align 8, !tbaa !19
  %74 = getelementptr inbounds double, ptr %72, i64 %73
  %75 = load double, ptr %74, align 8, !tbaa !21
  %76 = fneg double %67
  %77 = call double @llvm.fmuladd.f64(double %76, double %71, double %75)
  store double %77, ptr %74, align 8, !tbaa !21
  br label %78

78:                                               ; preds = %63
  %79 = load i64, ptr %9, align 8, !tbaa !19
  %80 = add nsw i64 %79, 1
  store i64 %80, ptr %9, align 8, !tbaa !19
  br label %59, !llvm.loop !31

81:                                               ; preds = %59
  br label %82

82:                                               ; preds = %81
  %83 = load i64, ptr %10, align 8, !tbaa !19
  %84 = add nsw i64 %83, 1
  store i64 %84, ptr %10, align 8, !tbaa !19
  br label %47, !llvm.loop !32

85:                                               ; preds = %47
  %86 = load i64, ptr %6, align 8, !tbaa !19
  %87 = sub nsw i64 %86, 1
  store i64 %87, ptr %10, align 8, !tbaa !19
  br label %88

88:                                               ; preds = %128, %85
  %89 = load i64, ptr %10, align 8, !tbaa !19
  %90 = icmp sgt i64 %89, 0
  br i1 %90, label %91, label %131

91:                                               ; preds = %88
  %92 = load ptr, ptr %5, align 8, !tbaa !18
  %93 = load i64, ptr %10, align 8, !tbaa !19
  %94 = getelementptr inbounds ptr, ptr %92, i64 %93
  %95 = load ptr, ptr %94, align 8, !tbaa !20
  store ptr %95, ptr %12, align 8, !tbaa !20
  %96 = load ptr, ptr %12, align 8, !tbaa !20
  %97 = load i64, ptr %10, align 8, !tbaa !19
  %98 = getelementptr inbounds double, ptr %96, i64 %97
  %99 = load double, ptr %98, align 8, !tbaa !21
  %100 = load ptr, ptr %8, align 8, !tbaa !20
  %101 = load i64, ptr %10, align 8, !tbaa !19
  %102 = getelementptr inbounds double, ptr %100, i64 %101
  %103 = load double, ptr %102, align 8, !tbaa !21
  %104 = fdiv double %103, %99
  store double %104, ptr %102, align 8, !tbaa !21
  store i64 0, ptr %9, align 8, !tbaa !19
  br label %105

105:                                              ; preds = %124, %91
  %106 = load i64, ptr %9, align 8, !tbaa !19
  %107 = load i64, ptr %10, align 8, !tbaa !19
  %108 = icmp slt i64 %106, %107
  br i1 %108, label %109, label %127

109:                                              ; preds = %105
  %110 = load ptr, ptr %12, align 8, !tbaa !20
  %111 = load i64, ptr %9, align 8, !tbaa !19
  %112 = getelementptr inbounds double, ptr %110, i64 %111
  %113 = load double, ptr %112, align 8, !tbaa !21
  %114 = load ptr, ptr %8, align 8, !tbaa !20
  %115 = load i64, ptr %10, align 8, !tbaa !19
  %116 = getelementptr inbounds double, ptr %114, i64 %115
  %117 = load double, ptr %116, align 8, !tbaa !21
  %118 = load ptr, ptr %8, align 8, !tbaa !20
  %119 = load i64, ptr %9, align 8, !tbaa !19
  %120 = getelementptr inbounds double, ptr %118, i64 %119
  %121 = load double, ptr %120, align 8, !tbaa !21
  %122 = fneg double %113
  %123 = call double @llvm.fmuladd.f64(double %122, double %117, double %121)
  store double %123, ptr %120, align 8, !tbaa !21
  br label %124

124:                                              ; preds = %109
  %125 = load i64, ptr %9, align 8, !tbaa !19
  %126 = add nsw i64 %125, 1
  store i64 %126, ptr %9, align 8, !tbaa !19
  br label %105, !llvm.loop !33

127:                                              ; preds = %105
  br label %128

128:                                              ; preds = %127
  %129 = load i64, ptr %10, align 8, !tbaa !19
  %130 = add nsw i64 %129, -1
  store i64 %130, ptr %10, align 8, !tbaa !19
  br label %88, !llvm.loop !34

131:                                              ; preds = %88
  %132 = load ptr, ptr %5, align 8, !tbaa !18
  %133 = getelementptr inbounds ptr, ptr %132, i64 0
  %134 = load ptr, ptr %133, align 8, !tbaa !20
  %135 = getelementptr inbounds double, ptr %134, i64 0
  %136 = load double, ptr %135, align 8, !tbaa !21
  %137 = load ptr, ptr %8, align 8, !tbaa !20
  %138 = getelementptr inbounds double, ptr %137, i64 0
  %139 = load double, ptr %138, align 8, !tbaa !21
  %140 = fdiv double %139, %136
  store double %140, ptr %138, align 8, !tbaa !21
  call void @llvm.lifetime.end.p0(i64 8, ptr %13) #4
  call void @llvm.lifetime.end.p0(i64 8, ptr %12) #4
  call void @llvm.lifetime.end.p0(i64 8, ptr %11) #4
  call void @llvm.lifetime.end.p0(i64 8, ptr %10) #4
  call void @llvm.lifetime.end.p0(i64 8, ptr %9) #4
  ret void
}